target datalayout = "e-m:e-p270:32:32-p271:32:32-p272:64:64-i64:64-i128:128-f80:128-n8:16:32:64-S128"
target triple = "x86_64-pc-linux-gnu"

%struct.common_log = type { %"class.std::mutex", %"class.std::thread", %"class.std::condition_variable", ptr, i8, i8, i8, i64, %"class.std::vector.0", i64, i64, %struct.common_log_entry }
%"class.std::mutex" = type { %"class.std::__mutex_base" }
%"class.std::__mutex_base" = type { %union.pthread_mutex_t }
%union.pthread_mutex_t = type { %struct.__pthread_mutex_s }
%struct.__pthread_mutex_s = type { i32, i32, i32, i32, i32, i16, i16, %struct.__pthread_internal_list }
%struct.__pthread_internal_list = type { ptr, ptr }
%"class.std::thread" = type { %"class.std::thread::id" }
%"class.std::thread::id" = type { i64 }
%"class.std::condition_variable" = type { %"class.std::__condvar" }
%"class.std::__condvar" = type { %union.pthread_cond_t }
%union.pthread_cond_t = type { %struct.__pthread_cond_s }
%struct.__pthread_cond_s = type { %union.__atomic_wide_counter, %union.__atomic_wide_counter, [2 x i32], [2 x i32], i32, i32, [2 x i32] }
%union.__atomic_wide_counter = type { i64 }
%"class.std::vector.0" = type { %"struct.std::_Vector_base.1" }
%"struct.std::_Vector_base.1" = type { %"struct.std::_Vector_base<common_log_entry, std::allocator<common_log_entry>>::_Vector_impl" }
%"struct.std::_Vector_base<common_log_entry, std::allocator<common_log_entry>>::_Vector_impl" = type { %"struct.std::_Vector_base<common_log_entry, std::allocator<common_log_entry>>::_Vector_impl_data" }
%"struct.std::_Vector_base<common_log_entry, std::allocator<common_log_entry>>::_Vector_impl_data" = type { ptr, ptr, ptr }
%struct.common_log_entry = type <{ i32, i8, [3 x i8], i64, %"class.std::vector.5", i8, [7 x i8] }>
%"class.std::vector.5" = type { %"struct.std::_Vector_base.6" }
%"struct.std::_Vector_base.6" = type { %"struct.std::_Vector_base<char, std::allocator<char>>::_Vector_impl" }
%"struct.std::_Vector_base<char, std::allocator<char>>::_Vector_impl" = type { %"struct.std::_Vector_base<char, std::allocator<char>>::_Vector_impl_data" }
%"struct.std::_Vector_base<char, std::allocator<char>>::_Vector_impl_data" = type { ptr, ptr, ptr }

@.str.9 = private unnamed_addr constant [2 x i8] c"w\00", align 1

; Function Attrs: mustprogress uwtable
define linkonce_odr void @_ZN10common_log8set_fileEPKc(ptr noundef nonnull align 8 dereferenceable(208) %0, ptr noundef %1) #4 comdat align 2 {
  %3 = alloca ptr, align 8
  %4 = alloca ptr, align 8
  store ptr %0, ptr %3, align 8, !tbaa !23
  store ptr %1, ptr %4, align 8, !tbaa !57
  %5 = load ptr, ptr %3, align 8
  call void @_ZN10common_log5pauseEv(ptr noundef nonnull align 8 dereferenceable(208) %5)
  %6 = getelementptr inbounds nuw %struct.common_log, ptr %5, i32 0, i32 3
  %7 = load ptr, ptr %6, align 8, !tbaa !26
  %8 = icmp ne ptr %7, null
  br i1 %8, label %9, label %13

9:                                                ; preds = %2
  %10 = getelementptr inbounds nuw %struct.common_log, ptr %5, i32 0, i32 3
  %11 = load ptr, ptr %10, align 8, !tbaa !26
  %12 = call i32 @fclose(ptr noundef %11)
  br label %13

13:                                               ; preds = %9, %2
  %14 = load ptr, ptr %4, align 8, !tbaa !57
  %15 = icmp ne ptr %14, null
  br i1 %15, label %16, label %20

16:                                               ; preds = %13
  %17 = load ptr, ptr %4, align 8, !tbaa !57
  %18 = call noalias ptr @fopen(ptr noundef %17, ptr noundef @.str.9)
  %19 = getelementptr inbounds nuw %struct.common_log, ptr %5, i32 0, i32 3
  store ptr %18, ptr %19, align 8, !tbaa !26
  br label %22

20:                                               ; preds = %13
  %21 = getelementptr inbounds nuw %struct.common_log, ptr %5, i32 0, i32 3
  store ptr null, ptr %21, align 8, !tbaa !26
  br label %22

22:                                               ; preds = %20, %16
  call void @_ZN10common_log6resumeEv(ptr noundef nonnull align 8 dereferenceable(208) %5)
  ret void
}

; Function Attrs: mustprogress uwtable
define void @_Z19common_log_set_fileP10common_logPKc(ptr noundef %0, ptr noundef %1) #4 {
  %3 = alloca ptr, align 8
  %4 = alloca ptr, align 8
  store ptr %0, ptr %3, align 8, !tbaa !23
  store ptr %1, ptr %4, align 8, !tbaa !57
  %5 = load ptr, ptr %3, align 8, !tbaa !23
  %6 = load ptr, ptr %4, align 8, !tbaa !57
  call void @_ZN10common_log8set_fileEPKc(ptr noundef nonnull align 8 dereferenceable(208) %5, ptr noundef %6)
  ret void
}