; Function Attrs: mustprogress uwtable
define void @_Z19common_log_set_fileP10common_logPKc(ptr noundef nonnull %0, ptr noundef readonly %1) local_unnamed_addr #5 {
  tail call void @_ZN10common_log5pauseEv(ptr noundef nonnull align 8 dereferenceable(208) %0)
  %3 = getelementptr inbounds nuw i8, ptr %0, i64 96
  %4 = load ptr, ptr %3, align 8, !tbaa !14
  %.not.i = icmp eq ptr %4, null
  br i1 %.not.i, label %7, label %5

5:                                                ; preds = %2
  %6 = tail call i32 @fclose(ptr noundef nonnull %4)
  br label %7

7:                                                ; preds = %5, %2
  %.not4.i = icmp eq ptr %1, null
  br i1 %.not4.i, label %_ZN10common_log8set_fileEPKc.exit, label %8

8:                                                ; preds = %7
  %9 = tail call noalias ptr @fopen(ptr noundef nonnull %1, ptr noundef nonnull @.str.9)
  br label %_ZN10common_log8set_fileEPKc.exit

_ZN10common_log8set_fileEPKc.exit:                ; preds = %7, %8
  %storemerge.i = phi ptr [ %9, %8 ], [ null, %7 ]
  store ptr %storemerge.i, ptr %3, align 8, !tbaa !14
  tail call void @_ZN10common_log6resumeEv(ptr noundef nonnull align 8 dereferenceable(208) %0)
  ret void
}